; Function Attrs: nounwind uwtable
define dso_local noundef ptr @ECPGmake_simple_type(i32 noundef %0, ptr noundef %1, i32 noundef %2) local_unnamed_addr #0 {
  %4 = tail call ptr @mm_alloc(i64 noundef 48) #7
  store i32 %0, ptr %4, align 8
  %5 = getelementptr inbounds nuw i8, ptr %4, i64 8
  store ptr null, ptr %5, align 8
  %6 = tail call ptr @mm_strdup(ptr noundef %1) #7
  %7 = getelementptr inbounds nuw i8, ptr %4, i64 16
  store ptr %6, ptr %7, align 8
  %8 = getelementptr inbounds nuw i8, ptr %4, i64 24
  %9 = getelementptr inbounds nuw i8, ptr %4, i64 40
  tail call void @llvm.memset.p0.i64(ptr noundef nonnull align 8 dereferenceable(16) %8, i8 0, i64 16, i1 false)
  store i32 %2, ptr %9, align 8
  ret ptr %4
}